; Function Attrs: mustprogress uwtable
define hidden void @_ZN12opencv_caffe17ProposalParameter8CopyFromERKS0_(ptr noundef nonnull align 8 dereferenceable(80) %0, ptr noundef nonnull readonly align 8 dereferenceable(80) %1) local_unnamed_addr #3 align 2 {
  %3 = icmp eq ptr %1, %0
  br i1 %3, label %22, label %4

4:                                                ; preds = %2
  %5 = getelementptr inbounds nuw i8, ptr %0, i64 24
  store i32 0, ptr %5, align 8, !tbaa !65
  %6 = getelementptr inbounds nuw i8, ptr %0, i64 40
  store i32 0, ptr %6, align 8, !tbaa !65
  %7 = getelementptr inbounds nuw i8, ptr %0, i64 16
  %8 = load i32, ptr %7, align 8, !tbaa !71
  %9 = and i32 %8, 63
  %.not.i = icmp eq i32 %9, 0
  br i1 %.not.i, label %17, label %10

10:                                               ; preds = %4
  %11 = getelementptr inbounds nuw i8, ptr %0, i64 56
  store i32 16, ptr %11, align 8, !tbaa !584
  %12 = getelementptr inbounds nuw i8, ptr %0, i64 60
  store i32 16, ptr %12, align 4, !tbaa !586
  %13 = getelementptr inbounds nuw i8, ptr %0, i64 64
  store i32 16, ptr %13, align 8, !tbaa !587
  %14 = getelementptr inbounds nuw i8, ptr %0, i64 68
  store i32 6000, ptr %14, align 4, !tbaa !588
  %15 = getelementptr inbounds nuw i8, ptr %0, i64 72
  store i32 300, ptr %15, align 8, !tbaa !589
  %16 = getelementptr inbounds nuw i8, ptr %0, i64 76
  store float 0x3FE6666660000000, ptr %16, align 4, !tbaa !590
  br label %17

17:                                               ; preds = %10, %4
  store i32 0, ptr %7, align 8
  %18 = getelementptr inbounds nuw i8, ptr %0, i64 8
  %19 = load i64, ptr %18, align 8, !tbaa !8
  %20 = and i64 %19, 1
  %.not1.i = icmp eq i64 %20, 0
  br i1 %.not1.i, label %_ZN12opencv_caffe17ProposalParameter5ClearEv.exit, label %21

21:                                               ; preds = %17
  tail call void @_ZN6google8protobuf8internal16InternalMetadata7DoClearINS0_15UnknownFieldSetEEEvv(ptr noundef nonnull align 8 dereferenceable(8) %18)
  br label %_ZN12opencv_caffe17ProposalParameter5ClearEv.exit

_ZN12opencv_caffe17ProposalParameter5ClearEv.exit: ; preds = %17, %21
  tail call void @_ZN12opencv_caffe17ProposalParameter9MergeFromERKS0_(ptr noundef nonnull align 8 dereferenceable(80) %0, ptr noundef nonnull align 8 dereferenceable(80) %1)
  br label %22

22:                                               ; preds = %2, %_ZN12opencv_caffe17ProposalParameter5ClearEv.exit
  ret void
}